target datalayout = "e-m:e-p270:32:32-p271:32:32-p272:64:64-i64:64-i128:128-f80:128-n8:16:32:64-S128"
target triple = "x86_64-pc-linux-gnu"

%"struct.Luau::Lexeme" = type { i32, %"struct.Luau::Location", i32, %union.anon }
%"struct.Luau::Location" = type { %"struct.Luau::Position", %"struct.Luau::Position" }
%"struct.Luau::Position" = type { i32, i32 }
%union.anon = type { ptr }
%"class.Luau::Lexer" = type { ptr, i64, i32, i32, i32, %"struct.Luau::Lexeme", %"struct.Luau::Location", ptr, i8, i8, %"class.std::vector" }
%"class.std::vector" = type { %"struct.std::_Vector_base" }
%"struct.std::_Vector_base" = type { %"struct.std::_Vector_base<Luau::Lexer::BraceType, std::allocator<Luau::Lexer::BraceType>>::_Vector_impl" }
%"struct.std::_Vector_base<Luau::Lexer::BraceType, std::allocator<Luau::Lexer::BraceType>>::_Vector_impl" = type { %"struct.std::_Vector_base<Luau::Lexer::BraceType, std::allocator<Luau::Lexer::BraceType>>::_Vector_impl_data" }
%"struct.std::_Vector_base<Luau::Lexer::BraceType, std::allocator<Luau::Lexer::BraceType>>::_Vector_impl_data" = type { ptr, ptr, ptr }

@_ZN4Luau6LexemeC1ERKNS_8LocationENS0_4TypeE = dso_local unnamed_addr alias void (ptr, ptr, i32), ptr @_ZN4Luau6LexemeC2ERKNS_8LocationENS0_4TypeE

; Function Attrs: mustprogress nounwind uwtable
define linkonce_odr dso_local void @_ZN4Luau8PositionC2Ejj(ptr noundef nonnull align 4 dereferenceable(8) %0, i32 noundef %1, i32 noundef %2) unnamed_addr #2 comdat align 2 {
  %4 = alloca ptr, align 8
  %5 = alloca i32, align 4
  %6 = alloca i32, align 4
  store ptr %0, ptr %4, align 8, !tbaa !87
  store i32 %1, ptr %5, align 4, !tbaa !4
  store i32 %2, ptr %6, align 4, !tbaa !4
  %7 = load ptr, ptr %4, align 8
  %8 = getelementptr inbounds nuw %"struct.Luau::Position", ptr %7, i32 0, i32 0
  %9 = load i32, ptr %5, align 4, !tbaa !4
  store i32 %9, ptr %8, align 4, !tbaa !81
  %10 = getelementptr inbounds nuw %"struct.Luau::Position", ptr %7, i32 0, i32 1
  %11 = load i32, ptr %6, align 4, !tbaa !4
  store i32 %11, ptr %10, align 4, !tbaa !83
  ret void
}

; Function Attrs: mustprogress nounwind uwtable
define linkonce_odr dso_local void @_ZN4Luau8LocationC2ERKNS_8PositionES3_(ptr noundef nonnull align 4 dereferenceable(16) %0, ptr noundef nonnull align 4 dereferenceable(8) %1, ptr noundef nonnull align 4 dereferenceable(8) %2) unnamed_addr #2 comdat align 2 {
  %4 = alloca ptr, align 8
  %5 = alloca ptr, align 8
  %6 = alloca ptr, align 8
  store ptr %0, ptr %4, align 8, !tbaa !24
  store ptr %1, ptr %5, align 8, !tbaa !87
  store ptr %2, ptr %6, align 8, !tbaa !87
  %7 = load ptr, ptr %4, align 8
  %8 = getelementptr inbounds nuw %"struct.Luau::Location", ptr %7, i32 0, i32 0
  %9 = load ptr, ptr %5, align 8, !tbaa !87
  call void @llvm.memcpy.p0.p0.i64(ptr align 4 %8, ptr align 4 %9, i64 8, i1 false), !tbaa.struct !89
  %10 = getelementptr inbounds nuw %"struct.Luau::Location", ptr %7, i32 0, i32 1
  %11 = load ptr, ptr %6, align 8, !tbaa !87
  call void @llvm.memcpy.p0.p0.i64(ptr align 4 %10, ptr align 4 %11, i64 8, i1 false), !tbaa.struct !89
  ret void
}

; Function Attrs: alwaysinline mustprogress nounwind uwtable
define linkonce_odr dso_local void @_ZN4Luau5Lexer7consumeEv(ptr noundef nonnull align 8 dereferenceable(120) %0) #8 comdat align 2 {
  %2 = alloca ptr, align 8
  store ptr %0, ptr %2, align 8, !tbaa !71
  %3 = load ptr, ptr %2, align 8
  %4 = getelementptr inbounds nuw %"class.Luau::Lexer", ptr %3, i32 0, i32 2
  %5 = load i32, ptr %4, align 8, !tbaa !80
  %6 = add i32 %5, 1
  store i32 %6, ptr %4, align 8, !tbaa !80
  ret void
}

; Function Attrs: alwaysinline mustprogress nounwind uwtable
define linkonce_odr dso_local noundef signext i8 @_ZNK4Luau5Lexer6peekchEv(ptr noundef nonnull align 8 dereferenceable(120) %0) #8 comdat align 2 {
  %2 = alloca ptr, align 8
  store ptr %0, ptr %2, align 8, !tbaa !71
  %3 = load ptr, ptr %2, align 8
  %4 = getelementptr inbounds nuw %"class.Luau::Lexer", ptr %3, i32 0, i32 2
  %5 = load i32, ptr %4, align 8, !tbaa !80
  %6 = zext i32 %5 to i64
  %7 = getelementptr inbounds nuw %"class.Luau::Lexer", ptr %3, i32 0, i32 1
  %8 = load i64, ptr %7, align 8, !tbaa !79
  %9 = icmp ult i64 %6, %8
  br i1 %9, label %10, label %19

10:                                               ; preds = %1
  %11 = getelementptr inbounds nuw %"class.Luau::Lexer", ptr %3, i32 0, i32 0
  %12 = load ptr, ptr %11, align 8, !tbaa !73
  %13 = getelementptr inbounds nuw %"class.Luau::Lexer", ptr %3, i32 0, i32 2
  %14 = load i32, ptr %13, align 8, !tbaa !80
  %15 = zext i32 %14 to i64
  %16 = getelementptr inbounds nuw i8, ptr %12, i64 %15
  %17 = load i8, ptr %16, align 1, !tbaa !34
  %18 = sext i8 %17 to i32
  br label %20

19:                                               ; preds = %1
  br label %20

20:                                               ; preds = %19, %10
  %21 = phi i32 [ %18, %10 ], [ 0, %19 ]
  %22 = trunc i32 %21 to i8
  ret i8 %22
}

; Function Attrs: alwaysinline mustprogress uwtable
define linkonce_odr dso_local i64 @_ZNK4Luau5Lexer8positionEv(ptr noundef nonnull align 8 dereferenceable(120) %0) #9 comdat align 2 {
  %2 = alloca %"struct.Luau::Position", align 4
  %3 = alloca ptr, align 8
  store ptr %0, ptr %3, align 8, !tbaa !71
  %4 = load ptr, ptr %3, align 8
  %5 = getelementptr inbounds nuw %"class.Luau::Lexer", ptr %4, i32 0, i32 3
  %6 = load i32, ptr %5, align 4, !tbaa !82
  %7 = getelementptr inbounds nuw %"class.Luau::Lexer", ptr %4, i32 0, i32 2
  %8 = load i32, ptr %7, align 8, !tbaa !80
  %9 = getelementptr inbounds nuw %"class.Luau::Lexer", ptr %4, i32 0, i32 4
  %10 = load i32, ptr %9, align 8, !tbaa !84
  %11 = sub i32 %8, %10
  call void @_ZN4Luau8PositionC2Ejj(ptr noundef nonnull align 4 dereferenceable(8) %2, i32 noundef %6, i32 noundef %11)
  %12 = load i64, ptr %2, align 4
  ret i64 %12
}

; Function Attrs: mustprogress noinline uwtable
define dso_local void @_ZN4Luau5Lexer13readUtf8ErrorEv(ptr dead_on_unwind noalias writable sret(%"struct.Luau::Lexeme") align 8 %0, ptr noundef nonnull align 8 dereferenceable(120) %1) #10 align 2 {
  %3 = alloca ptr, align 8
  %4 = alloca %"struct.Luau::Position", align 4
  %5 = alloca i32, align 4
  %6 = alloca i32, align 4
  %7 = alloca %"struct.Luau::Location", align 4
  %8 = alloca %"struct.Luau::Position", align 4
  %9 = alloca i32, align 4
  %10 = alloca i32, align 4
  %11 = alloca %"struct.Luau::Location", align 4
  %12 = alloca %"struct.Luau::Position", align 4
  %13 = alloca %"struct.Luau::Location", align 4
  %14 = alloca %"struct.Luau::Position", align 4
  store ptr %1, ptr %3, align 8, !tbaa !71
  %15 = load ptr, ptr %3, align 8
  call void @llvm.lifetime.start.p0(i64 8, ptr %4) #18
  %16 = call i64 @_ZNK4Luau5Lexer8positionEv(ptr noundef nonnull align 8 dereferenceable(120) %15)
  store i64 %16, ptr %4, align 4
  call void @llvm.lifetime.start.p0(i64 4, ptr %5) #18
  store i32 0, ptr %5, align 4, !tbaa !4
  call void @llvm.lifetime.start.p0(i64 4, ptr %6) #18
  store i32 0, ptr %6, align 4, !tbaa !4
  %17 = call noundef signext i8 @_ZNK4Luau5Lexer6peekchEv(ptr noundef nonnull align 8 dereferenceable(120) %15)
  %18 = sext i8 %17 to i32
  %19 = and i32 %18, 128
  %20 = icmp eq i32 %19, 0
  br i1 %20, label %21, label %25

21:                                               ; preds = %2
  store i32 1, ptr %6, align 4, !tbaa !4
  %22 = call noundef signext i8 @_ZNK4Luau5Lexer6peekchEv(ptr noundef nonnull align 8 dereferenceable(120) %15)
  %23 = sext i8 %22 to i32
  %24 = and i32 %23, 127
  store i32 %24, ptr %5, align 4, !tbaa !4
  br label %57

25:                                               ; preds = %2
  %26 = call noundef signext i8 @_ZNK4Luau5Lexer6peekchEv(ptr noundef nonnull align 8 dereferenceable(120) %15)
  %27 = sext i8 %26 to i32
  %28 = and i32 %27, 224
  %29 = icmp eq i32 %28, 192
  br i1 %29, label %30, label %34

30:                                               ; preds = %25
  store i32 2, ptr %6, align 4, !tbaa !4
  %31 = call noundef signext i8 @_ZNK4Luau5Lexer6peekchEv(ptr noundef nonnull align 8 dereferenceable(120) %15)
  %32 = sext i8 %31 to i32
  %33 = and i32 %32, 31
  store i32 %33, ptr %5, align 4, !tbaa !4
  br label %56

34:                                               ; preds = %25
  %35 = call noundef signext i8 @_ZNK4Luau5Lexer6peekchEv(ptr noundef nonnull align 8 dereferenceable(120) %15)
  %36 = sext i8 %35 to i32
  %37 = and i32 %36, 240
  %38 = icmp eq i32 %37, 224
  br i1 %38, label %39, label %43

39:                                               ; preds = %34
  store i32 3, ptr %6, align 4, !tbaa !4
  %40 = call noundef signext i8 @_ZNK4Luau5Lexer6peekchEv(ptr noundef nonnull align 8 dereferenceable(120) %15)
  %41 = sext i8 %40 to i32
  %42 = and i32 %41, 15
  store i32 %42, ptr %5, align 4, !tbaa !4
  br label %55

43:                                               ; preds = %34
  %44 = call noundef signext i8 @_ZNK4Luau5Lexer6peekchEv(ptr noundef nonnull align 8 dereferenceable(120) %15)
  %45 = sext i8 %44 to i32
  %46 = and i32 %45, 248
  %47 = icmp eq i32 %46, 240
  br i1 %47, label %48, label %52

48:                                               ; preds = %43
  store i32 4, ptr %6, align 4, !tbaa !4
  %49 = call noundef signext i8 @_ZNK4Luau5Lexer6peekchEv(ptr noundef nonnull align 8 dereferenceable(120) %15)
  %50 = sext i8 %49 to i32
  %51 = and i32 %50, 7
  store i32 %51, ptr %5, align 4, !tbaa !4
  br label %54

52:                                               ; preds = %43
  call void @_ZN4Luau5Lexer7consumeEv(ptr noundef nonnull align 8 dereferenceable(120) %15)
  call void @llvm.lifetime.start.p0(i64 16, ptr %7) #18
  call void @llvm.lifetime.start.p0(i64 8, ptr %8) #18
  %53 = call i64 @_ZNK4Luau5Lexer8positionEv(ptr noundef nonnull align 8 dereferenceable(120) %15)
  store i64 %53, ptr %8, align 4
  call void @_ZN4Luau8LocationC2ERKNS_8PositionES3_(ptr noundef nonnull align 4 dereferenceable(16) %7, ptr noundef nonnull align 4 dereferenceable(8) %4, ptr noundef nonnull align 4 dereferenceable(8) %8)
  call void @_ZN4Luau6LexemeC1ERKNS_8LocationENS0_4TypeE(ptr noundef nonnull align 8 dereferenceable(32) %0, ptr noundef nonnull align 4 dereferenceable(16) %7, i32 noundef 287)
  call void @llvm.lifetime.end.p0(i64 8, ptr %8) #18
  call void @llvm.lifetime.end.p0(i64 16, ptr %7) #18
  store i32 1, ptr %9, align 4
  br label %87

54:                                               ; preds = %48
  br label %55

55:                                               ; preds = %54, %39
  br label %56

56:                                               ; preds = %55, %30
  br label %57

57:                                               ; preds = %56, %21
  call void @_ZN4Luau5Lexer7consumeEv(ptr noundef nonnull align 8 dereferenceable(120) %15)
  call void @llvm.lifetime.start.p0(i64 4, ptr %10) #18
  store i32 1, ptr %10, align 4, !tbaa !4
  br label %58

58:                                               ; preds = %78, %57
  %59 = load i32, ptr %10, align 4, !tbaa !4
  %60 = load i32, ptr %6, align 4, !tbaa !4
  %61 = icmp slt i32 %59, %60
  br i1 %61, label %63, label %62

62:                                               ; preds = %58
  store i32 2, ptr %9, align 4
  br label %81

63:                                               ; preds = %58
  %64 = call noundef signext i8 @_ZNK4Luau5Lexer6peekchEv(ptr noundef nonnull align 8 dereferenceable(120) %15)
  %65 = sext i8 %64 to i32
  %66 = and i32 %65, 192
  %67 = icmp ne i32 %66, 128
  br i1 %67, label %68, label %70

68:                                               ; preds = %63
  call void @llvm.lifetime.start.p0(i64 16, ptr %11) #18
  call void @llvm.lifetime.start.p0(i64 8, ptr %12) #18
  %69 = call i64 @_ZNK4Luau5Lexer8positionEv(ptr noundef nonnull align 8 dereferenceable(120) %15)
  store i64 %69, ptr %12, align 4
  call void @_ZN4Luau8LocationC2ERKNS_8PositionES3_(ptr noundef nonnull align 4 dereferenceable(16) %11, ptr noundef nonnull align 4 dereferenceable(8) %4, ptr noundef nonnull align 4 dereferenceable(8) %12)
  call void @_ZN4Luau6LexemeC1ERKNS_8LocationENS0_4TypeE(ptr noundef nonnull align 8 dereferenceable(32) %0, ptr noundef nonnull align 4 dereferenceable(16) %11, i32 noundef 287)
  call void @llvm.lifetime.end.p0(i64 8, ptr %12) #18
  call void @llvm.lifetime.end.p0(i64 16, ptr %11) #18
  store i32 1, ptr %9, align 4
  br label %81

70:                                               ; preds = %63
  %71 = load i32, ptr %5, align 4, !tbaa !4
  %72 = shl i32 %71, 6
  store i32 %72, ptr %5, align 4, !tbaa !4
  %73 = call noundef signext i8 @_ZNK4Luau5Lexer6peekchEv(ptr noundef nonnull align 8 dereferenceable(120) %15)
  %74 = sext i8 %73 to i32
  %75 = and i32 %74, 63
  %76 = load i32, ptr %5, align 4, !tbaa !4
  %77 = or i32 %76, %75
  store i32 %77, ptr %5, align 4, !tbaa !4
  call void @_ZN4Luau5Lexer7consumeEv(ptr noundef nonnull align 8 dereferenceable(120) %15)
  br label %78

78:                                               ; preds = %70
  %79 = load i32, ptr %10, align 4, !tbaa !4
  %80 = add nsw i32 %79, 1
  store i32 %80, ptr %10, align 4, !tbaa !4
  br label %58, !llvm.loop !116

81:                                               ; preds = %68, %62
  call void @llvm.lifetime.end.p0(i64 4, ptr %10) #18
  %82 = load i32, ptr %9, align 4
  switch i32 %82, label %87 [
    i32 2, label %83
  ]

83:                                               ; preds = %81
  call void @llvm.lifetime.start.p0(i64 16, ptr %13) #18
  call void @llvm.lifetime.start.p0(i64 8, ptr %14) #18
  %84 = call i64 @_ZNK4Luau5Lexer8positionEv(ptr noundef nonnull align 8 dereferenceable(120) %15)
  store i64 %84, ptr %14, align 4
  call void @_ZN4Luau8LocationC2ERKNS_8PositionES3_(ptr noundef nonnull align 4 dereferenceable(16) %13, ptr noundef nonnull align 4 dereferenceable(8) %4, ptr noundef nonnull align 4 dereferenceable(8) %14)
  call void @_ZN4Luau6LexemeC1ERKNS_8LocationENS0_4TypeE(ptr noundef nonnull align 8 dereferenceable(32) %0, ptr noundef nonnull align 4 dereferenceable(16) %13, i32 noundef 287)
  call void @llvm.lifetime.end.p0(i64 8, ptr %14) #18
  call void @llvm.lifetime.end.p0(i64 16, ptr %13) #18
  %85 = load i32, ptr %5, align 4, !tbaa !4
  %86 = getelementptr inbounds nuw %"struct.Luau::Lexeme", ptr %0, i32 0, i32 3
  store i32 %85, ptr %86, align 8, !tbaa !34
  store i32 1, ptr %9, align 4
  br label %87

87:                                               ; preds = %83, %81, %52
  call void @llvm.lifetime.end.p0(i64 4, ptr %6) #18
  call void @llvm.lifetime.end.p0(i64 4, ptr %5) #18
  call void @llvm.lifetime.end.p0(i64 8, ptr %4) #18
  ret void
}