; Function Attrs: mustprogress nofree noinline norecurse nosync nounwind memory(read, argmem: readwrite, inaccessiblemem: none) uwtable
define dso_local void @_ZN4Luau5Lexer13readUtf8ErrorEv(ptr dead_on_unwind noalias writable writeonly sret(%"struct.Luau::Lexeme") align 8 captures(none) %0, ptr noundef nonnull align 8 captures(none) dereferenceable(120) %1) local_unnamed_addr #14 align 2 {
  %3 = getelementptr inbounds nuw i8, ptr %1, i64 20
  %4 = load i32, ptr %3, align 4, !tbaa !66
  %5 = getelementptr inbounds nuw i8, ptr %1, i64 16
  %6 = load i32, ptr %5, align 8, !tbaa !60
  %7 = getelementptr inbounds nuw i8, ptr %1, i64 24
  %8 = load i32, ptr %7, align 8, !tbaa !67
  %9 = sub i32 %6, %8
  %.sroa.437.0.insert.ext = zext i32 %9 to i64
  %.sroa.437.0.insert.shift = shl nuw i64 %.sroa.437.0.insert.ext, 32
  %.sroa.036.0.insert.ext = zext i32 %4 to i64
  %.sroa.036.0.insert.insert = or disjoint i64 %.sroa.437.0.insert.shift, %.sroa.036.0.insert.ext
  %10 = zext i32 %6 to i64
  %11 = getelementptr inbounds nuw i8, ptr %1, i64 8
  %12 = load i64, ptr %11, align 8, !tbaa !59
  %13 = icmp ugt i64 %12, %10
  br i1 %13, label %_ZNK4Luau5Lexer6peekchEv.exit19, label %_ZNK4Luau5Lexer6peekchEv.exit18

_ZNK4Luau5Lexer6peekchEv.exit19:                  ; preds = %2
  %14 = load ptr, ptr %1, align 8, !tbaa !51
  %15 = getelementptr inbounds nuw i8, ptr %14, i64 %10
  %16 = load i8, ptr %15, align 1, !tbaa !15
  %17 = icmp sgt i8 %16, -1
  br i1 %17, label %_ZNK4Luau5Lexer6peekchEv.exit18, label %_ZNK4Luau5Lexer6peekchEv.exit17

_ZNK4Luau5Lexer6peekchEv.exit17:                  ; preds = %_ZNK4Luau5Lexer6peekchEv.exit19
  %18 = and i8 %16, -32
  %19 = icmp eq i8 %18, -64
  br i1 %19, label %.lr.ph, label %_ZNK4Luau5Lexer6peekchEv.exit15

_ZNK4Luau5Lexer6peekchEv.exit15:                  ; preds = %_ZNK4Luau5Lexer6peekchEv.exit17
  %20 = and i8 %16, -16
  %21 = icmp eq i8 %20, -32
  br i1 %21, label %.lr.ph, label %_ZNK4Luau5Lexer6peekchEv.exit13

_ZNK4Luau5Lexer6peekchEv.exit13:                  ; preds = %_ZNK4Luau5Lexer6peekchEv.exit15
  %22 = and i8 %16, -8
  %23 = icmp eq i8 %22, -16
  br i1 %23, label %.lr.ph, label %24

24:                                               ; preds = %_ZNK4Luau5Lexer6peekchEv.exit13
  %25 = add i32 %6, 1
  store i32 %25, ptr %5, align 8, !tbaa !60
  %26 = sub i32 %25, %8
  %.sroa.435.0.insert.ext = zext i32 %26 to i64
  %.sroa.435.0.insert.shift = shl nuw i64 %.sroa.435.0.insert.ext, 32
  %.sroa.034.0.insert.insert = or disjoint i64 %.sroa.435.0.insert.shift, %.sroa.036.0.insert.ext
  store i32 287, ptr %0, align 8, !tbaa !8
  %27 = getelementptr inbounds nuw i8, ptr %0, i64 4
  store i64 %.sroa.036.0.insert.insert, ptr %27, align 4
  %.sroa.426.0..sroa_idx = getelementptr inbounds nuw i8, ptr %0, i64 12
  store i64 %.sroa.034.0.insert.insert, ptr %.sroa.426.0..sroa_idx, align 4
  %28 = getelementptr inbounds nuw i8, ptr %0, i64 20
  store i32 0, ptr %28, align 4, !tbaa !14
  %29 = getelementptr inbounds nuw i8, ptr %0, i64 24
  store ptr null, ptr %29, align 8, !tbaa !15
  br label %55

_ZNK4Luau5Lexer6peekchEv.exit18:                  ; preds = %_ZNK4Luau5Lexer6peekchEv.exit19, %2
  %.09.in = phi i8 [ 0, %2 ], [ %16, %_ZNK4Luau5Lexer6peekchEv.exit19 ]
  %.09 = zext nneg i8 %.09.in to i32
  %30 = add i32 %6, 1
  store i32 %30, ptr %5, align 8, !tbaa !60
  br label %.critedge

.lr.ph:                                           ; preds = %_ZNK4Luau5Lexer6peekchEv.exit13, %_ZNK4Luau5Lexer6peekchEv.exit15, %_ZNK4Luau5Lexer6peekchEv.exit17
  %.sink = phi i8 [ 31, %_ZNK4Luau5Lexer6peekchEv.exit17 ], [ 15, %_ZNK4Luau5Lexer6peekchEv.exit15 ], [ 7, %_ZNK4Luau5Lexer6peekchEv.exit13 ]
  %.08.ph = phi i32 [ 2, %_ZNK4Luau5Lexer6peekchEv.exit17 ], [ 3, %_ZNK4Luau5Lexer6peekchEv.exit15 ], [ 4, %_ZNK4Luau5Lexer6peekchEv.exit13 ]
  %31 = and i8 %16, %.sink
  %.0948 = zext nneg i8 %31 to i32
  %32 = add i32 %6, 1
  store i32 %32, ptr %5, align 8, !tbaa !60
  %33 = load ptr, ptr %1, align 8
  br label %34

34:                                               ; preds = %.lr.ph, %_ZNK4Luau5Lexer6peekchEv.exit
  %.042 = phi i32 [ 1, %.lr.ph ], [ %49, %_ZNK4Luau5Lexer6peekchEv.exit ]
  %.141 = phi i32 [ %.0948, %.lr.ph ], [ %47, %_ZNK4Luau5Lexer6peekchEv.exit ]
  %35 = phi i32 [ %32, %.lr.ph ], [ %48, %_ZNK4Luau5Lexer6peekchEv.exit ]
  %36 = zext i32 %35 to i64
  %37 = icmp ugt i64 %12, %36
  br i1 %37, label %_ZNK4Luau5Lexer6peekchEv.exit11, label %_ZNK4Luau5Lexer6peekchEv.exit11.thread

_ZNK4Luau5Lexer6peekchEv.exit11:                  ; preds = %34
  %38 = getelementptr inbounds nuw i8, ptr %33, i64 %36
  %39 = load i8, ptr %38, align 1, !tbaa !15
  %.not = icmp slt i8 %39, -64
  br i1 %.not, label %_ZNK4Luau5Lexer6peekchEv.exit, label %_ZNK4Luau5Lexer6peekchEv.exit11.thread

_ZNK4Luau5Lexer6peekchEv.exit11.thread:           ; preds = %34, %_ZNK4Luau5Lexer6peekchEv.exit11
  %40 = sub i32 %35, %8
  %.sroa.433.0.insert.ext = zext i32 %40 to i64
  %.sroa.433.0.insert.shift = shl nuw i64 %.sroa.433.0.insert.ext, 32
  %.sroa.032.0.insert.insert = or disjoint i64 %.sroa.433.0.insert.shift, %.sroa.036.0.insert.ext
  store i32 287, ptr %0, align 8, !tbaa !8
  %41 = getelementptr inbounds nuw i8, ptr %0, i64 4
  store i64 %.sroa.036.0.insert.insert, ptr %41, align 4
  %.sroa.423.0..sroa_idx = getelementptr inbounds nuw i8, ptr %0, i64 12
  store i64 %.sroa.032.0.insert.insert, ptr %.sroa.423.0..sroa_idx, align 4
  %42 = getelementptr inbounds nuw i8, ptr %0, i64 20
  store i32 0, ptr %42, align 4, !tbaa !14
  %43 = getelementptr inbounds nuw i8, ptr %0, i64 24
  store ptr null, ptr %43, align 8, !tbaa !15
  br label %55

_ZNK4Luau5Lexer6peekchEv.exit:                    ; preds = %_ZNK4Luau5Lexer6peekchEv.exit11
  %44 = shl i32 %.141, 6
  %45 = and i8 %39, 63
  %46 = zext nneg i8 %45 to i32
  %47 = or disjoint i32 %44, %46
  %48 = add i32 %35, 1
  store i32 %48, ptr %5, align 8, !tbaa !60
  %49 = add nuw nsw i32 %.042, 1
  %exitcond.not = icmp eq i32 %49, %.08.ph
  br i1 %exitcond.not, label %.critedge, label %34, !llvm.loop !102

.critedge:                                        ; preds = %_ZNK4Luau5Lexer6peekchEv.exit, %_ZNK4Luau5Lexer6peekchEv.exit18
  %50 = phi i32 [ %30, %_ZNK4Luau5Lexer6peekchEv.exit18 ], [ %48, %_ZNK4Luau5Lexer6peekchEv.exit ]
  %.1.lcssa = phi i32 [ %.09, %_ZNK4Luau5Lexer6peekchEv.exit18 ], [ %47, %_ZNK4Luau5Lexer6peekchEv.exit ]
  %51 = sub i32 %50, %8
  %.sroa.431.0.insert.ext = zext i32 %51 to i64
  %.sroa.431.0.insert.shift = shl nuw i64 %.sroa.431.0.insert.ext, 32
  %.sroa.030.0.insert.insert = or disjoint i64 %.sroa.431.0.insert.shift, %.sroa.036.0.insert.ext
  store i32 287, ptr %0, align 8, !tbaa !8
  %52 = getelementptr inbounds nuw i8, ptr %0, i64 4
  store i64 %.sroa.036.0.insert.insert, ptr %52, align 4
  %.sroa.4.0..sroa_idx = getelementptr inbounds nuw i8, ptr %0, i64 12
  store i64 %.sroa.030.0.insert.insert, ptr %.sroa.4.0..sroa_idx, align 4
  %53 = getelementptr inbounds nuw i8, ptr %0, i64 20
  store i32 0, ptr %53, align 4, !tbaa !14
  %54 = getelementptr inbounds nuw i8, ptr %0, i64 24
  store ptr null, ptr %54, align 8, !tbaa !15
  store i32 %.1.lcssa, ptr %54, align 8, !tbaa !15
  br label %55

55:                                               ; preds = %_ZNK4Luau5Lexer6peekchEv.exit11.thread, %.critedge, %24
  ret void
}